target datalayout = "e-m:e-p270:32:32-p271:32:32-p272:64:64-i64:64-i128:128-f80:128-n8:16:32:64-S128"
target triple = "x86_64-unknown-linux-gnu"

%"struct.node::AssertionInfo" = type { ptr, ptr, ptr }
%"class.v8::Local" = type { %"class.v8::LocalBase" }
%"class.v8::LocalBase" = type { %"class.v8::IndirectHandleBase" }
%"class.v8::IndirectHandleBase" = type { ptr }
%"class.v8::Local.279" = type { %"class.v8::LocalBase.280" }
%"class.v8::LocalBase.280" = type { %"class.v8::IndirectHandleBase" }
%"class.v8::ReturnValue" = type { ptr }

@_ZZN4node11UDPWrapBase10FromObjectEN2v85LocalINS1_6ObjectEEEE4args = internal constant %"struct.node::AssertionInfo" { ptr @.str.6, ptr @.str.7, ptr @.str.8 }, align 8

; Function Attrs: mustprogress nounwind uwtable
define dso_local noundef ptr @_ZN4node11UDPWrapBase10FromObjectEN2v85LocalINS1_6ObjectEEE(ptr %obj.coerce) #4 align 2 {
entry:
  %slot.addr.i46 = alloca ptr, align 8
  %slot.addr.i = alloca ptr, align 8
  %this.addr.i.i41 = alloca ptr, align 8
  %this.addr.i42 = alloca ptr, align 8
  %this.addr.i.i = alloca ptr, align 8
  %this.addr.i39 = alloca ptr, align 8
  %heap_object_ptr.addr.i33 = alloca i64, align 8
  %offset.addr.i34 = alloca i32, align 4
  %addr.i35 = alloca i64, align 8
  %heap_object_ptr.addr.i27 = alloca i64, align 8
  %offset.addr.i28 = alloca i32, align 4
  %addr.i29 = alloca i64, align 8
  %heap_object_ptr.addr.i22 = alloca i64, align 8
  %offset.addr.i23 = alloca i32, align 4
  %addr.i = alloca i64, align 8
  %heap_object_ptr.addr.i19 = alloca i64, align 8
  %offset.addr.i20 = alloca i32, align 4
  %isolate.addr.i = alloca ptr, align 8
  %heap_object_ptr.addr.i = alloca i64, align 8
  %offset.addr.i = alloca i32, align 4
  %obj.addr.i17 = alloca i64, align 8
  %instance_type.addr.i = alloca i32, align 4
  %obj.addr.i = alloca i64, align 8
  %map.i = alloca i64, align 8
  %value.addr.i = alloca ptr, align 8
  %retval.i = alloca ptr, align 8
  %this.addr.i13 = alloca ptr, align 8
  %index.addr.i = alloca i32, align 4
  %obj.i = alloca i64, align 8
  %instance_type.i = alloca i32, align 4
  %offset.i = alloca i32, align 4
  %isolate.i = alloca ptr, align 8
  %value.i = alloca i64, align 8
  %this.addr.i10 = alloca ptr, align 8
  %this.addr.i = alloca ptr, align 8
  %obj = alloca %"class.v8::Local", align 8
  %coerce.dive = getelementptr inbounds %"class.v8::Local", ptr %obj, i32 0, i32 0
  %coerce.dive1 = getelementptr inbounds %"class.v8::LocalBase", ptr %coerce.dive, i32 0, i32 0
  %coerce.dive2 = getelementptr inbounds %"class.v8::IndirectHandleBase", ptr %coerce.dive1, i32 0, i32 0
  store ptr %obj.coerce, ptr %coerce.dive2, align 8
  br label %do.body

do.body:                                          ; preds = %entry
  store ptr %obj, ptr %this.addr.i10, align 8
  %this1.i11 = load ptr, ptr %this.addr.i10, align 8
  store ptr %this1.i11, ptr %this.addr.i39, align 8
  %this1.i40 = load ptr, ptr %this.addr.i39, align 8
  store ptr %this1.i40, ptr %this.addr.i.i, align 8
  %this1.i.i = load ptr, ptr %this.addr.i.i, align 8
  %0 = load ptr, ptr %this1.i.i, align 8
  store ptr %0, ptr %slot.addr.i46, align 8
  %1 = load ptr, ptr %slot.addr.i46, align 8
  %call3 = call noundef i32 @_ZNK2v86Object18InternalFieldCountEv(ptr noundef nonnull align 1 dereferenceable(1) %1)
  %cmp = icmp sgt i32 %call3, 2
  %lnot = xor i1 %cmp, true
  %lnot4 = xor i1 %lnot, true
  %lnot5 = xor i1 %lnot4, true
  br i1 %lnot5, label %if.then, label %if.end

if.then:                                          ; preds = %do.body
  br label %do.body6

do.body6:                                         ; preds = %if.then
  call void @_ZN4node6AssertERKNS_13AssertionInfoE(ptr noundef nonnull align 8 dereferenceable(24) @_ZZN4node11UDPWrapBase10FromObjectEN2v85LocalINS1_6ObjectEEEE4args)
  call void @abort() #13
  unreachable

do.end:                                           ; No predecessors!
  br label %if.end

if.end:                                           ; preds = %do.end, %do.body
  br label %do.end7

do.end7:                                          ; preds = %if.end
  store ptr %obj, ptr %this.addr.i, align 8
  %this1.i = load ptr, ptr %this.addr.i, align 8
  store ptr %this1.i, ptr %this.addr.i42, align 8
  %this1.i43 = load ptr, ptr %this.addr.i42, align 8
  store ptr %this1.i43, ptr %this.addr.i.i41, align 8
  %this1.i.i44 = load ptr, ptr %this.addr.i.i41, align 8
  %2 = load ptr, ptr %this1.i.i44, align 8
  store ptr %2, ptr %slot.addr.i, align 8
  %3 = load ptr, ptr %slot.addr.i, align 8
  store ptr %3, ptr %this.addr.i13, align 8
  store i32 2, ptr %index.addr.i, align 4
  %this1.i14 = load ptr, ptr %this.addr.i13, align 8
  store ptr %this1.i14, ptr %value.addr.i, align 8
  %4 = load ptr, ptr %value.addr.i, align 8
  %5 = load i64, ptr %4, align 8
  store i64 %5, ptr %obj.i, align 8
  %6 = load i64, ptr %obj.i, align 8
  store i64 %6, ptr %obj.addr.i, align 8
  %7 = load i64, ptr %obj.addr.i, align 8
  store i64 %7, ptr %heap_object_ptr.addr.i19, align 8
  store i32 0, ptr %offset.addr.i20, align 4
  %8 = load i64, ptr %heap_object_ptr.addr.i19, align 8
  %9 = load i32, ptr %offset.addr.i20, align 4
  store i64 %8, ptr %heap_object_ptr.addr.i27, align 8
  store i32 %9, ptr %offset.addr.i28, align 4
  %10 = load i64, ptr %heap_object_ptr.addr.i27, align 8
  %11 = load i32, ptr %offset.addr.i28, align 4
  %conv.i30 = sext i32 %11 to i64
  %add.i31 = add i64 %10, %conv.i30
  %sub.i32 = sub i64 %add.i31, 1
  store i64 %sub.i32, ptr %addr.i29, align 8
  %12 = load i64, ptr %addr.i29, align 8
  %13 = inttoptr i64 %12 to ptr
  %14 = load i64, ptr %13, align 8
  store i64 %14, ptr %map.i, align 8
  %15 = load i64, ptr %map.i, align 8
  store i64 %15, ptr %heap_object_ptr.addr.i22, align 8
  store i32 12, ptr %offset.addr.i23, align 4
  %16 = load i64, ptr %heap_object_ptr.addr.i22, align 8
  %17 = load i32, ptr %offset.addr.i23, align 4
  %conv.i24 = sext i32 %17 to i64
  %add.i25 = add i64 %16, %conv.i24
  %sub.i26 = sub i64 %add.i25, 1
  store i64 %sub.i26, ptr %addr.i, align 8
  %18 = load i64, ptr %addr.i, align 8
  %19 = inttoptr i64 %18 to ptr
  %20 = load i16, ptr %19, align 2
  %conv.i = zext i16 %20 to i32
  store i32 %conv.i, ptr %instance_type.i, align 4
  %21 = load i32, ptr %instance_type.i, align 4
  store i32 %21, ptr %instance_type.addr.i, align 4
  %22 = load i32, ptr %instance_type.addr.i, align 4
  %cmp.i = icmp eq i32 %22, 1040
  br i1 %cmp.i, label %_ZN2v88internal9Internals20CanHaveInternalFieldEi.exit, label %lor.rhs.i

lor.rhs.i:                                        ; preds = %do.end7
  %23 = load i32, ptr %instance_type.addr.i, align 4
  %sub.i = sub i32 %23, 1057
  %cmp1.i = icmp ule i32 %sub.i, 1001
  br label %_ZN2v88internal9Internals20CanHaveInternalFieldEi.exit

_ZN2v88internal9Internals20CanHaveInternalFieldEi.exit: ; preds = %lor.rhs.i, %do.end7
  %24 = phi i1 [ true, %do.end7 ], [ %cmp1.i, %lor.rhs.i ]
  br i1 %24, label %if.then.i, label %if.end.i

if.then.i:                                        ; preds = %_ZN2v88internal9Internals20CanHaveInternalFieldEi.exit
  %25 = load i32, ptr %index.addr.i, align 4
  %mul.i = mul nsw i32 8, %25
  %add.i = add nsw i32 24, %mul.i
  store i32 %add.i, ptr %offset.i, align 4
  %26 = load i64, ptr %obj.i, align 8
  store i64 %26, ptr %obj.addr.i17, align 8
  store ptr null, ptr %isolate.i, align 8
  %27 = load ptr, ptr %isolate.i, align 8
  %28 = load i64, ptr %obj.i, align 8
  %29 = load i32, ptr %offset.i, align 4
  store ptr %27, ptr %isolate.addr.i, align 8
  store i64 %28, ptr %heap_object_ptr.addr.i, align 8
  store i32 %29, ptr %offset.addr.i, align 4
  %30 = load i64, ptr %heap_object_ptr.addr.i, align 8
  %31 = load i32, ptr %offset.addr.i, align 4
  store i64 %30, ptr %heap_object_ptr.addr.i33, align 8
  store i32 %31, ptr %offset.addr.i34, align 4
  %32 = load i64, ptr %heap_object_ptr.addr.i33, align 8
  %33 = load i32, ptr %offset.addr.i34, align 4
  %conv.i36 = sext i32 %33 to i64
  %add.i37 = add i64 %32, %conv.i36
  %sub.i38 = sub i64 %add.i37, 1
  store i64 %sub.i38, ptr %addr.i35, align 8
  %34 = load i64, ptr %addr.i35, align 8
  %35 = inttoptr i64 %34 to ptr
  %36 = load i64, ptr %35, align 8
  store i64 %36, ptr %value.i, align 8
  %37 = load i64, ptr %value.i, align 8
  %38 = inttoptr i64 %37 to ptr
  store ptr %38, ptr %retval.i, align 8
  br label %_ZN2v86Object34GetAlignedPointerFromInternalFieldEi.exit

if.end.i:                                         ; preds = %_ZN2v88internal9Internals20CanHaveInternalFieldEi.exit
  %39 = load i32, ptr %index.addr.i, align 4
  %call7.i = call noundef ptr @_ZN2v86Object38SlowGetAlignedPointerFromInternalFieldEi(ptr noundef nonnull align 1 dereferenceable(1) %this1.i14, i32 noundef %39) #3
  store ptr %call7.i, ptr %retval.i, align 8
  br label %_ZN2v86Object34GetAlignedPointerFromInternalFieldEi.exit

_ZN2v86Object34GetAlignedPointerFromInternalFieldEi.exit: ; preds = %if.end.i, %if.then.i
  %40 = load ptr, ptr %retval.i, align 8
  ret ptr %40
}

; Function Attrs: mustprogress nounwind uwtable
define dso_local void @_ZN4node11UDPWrapBase8RecvStopERKN2v820FunctionCallbackInfoINS1_5ValueEEE(ptr noundef nonnull align 8 dereferenceable(20) %args) #4 align 2 {
entry:
  %isolate.addr.i.i = alloca ptr, align 8
  %index.addr.i.i = alloca i32, align 4
  %addr.i.i = alloca i64, align 8
  %isolate.addr.i = alloca ptr, align 8
  %index.addr.i = alloca i32, align 4
  %this.addr.i46 = alloca ptr, align 8
  %this.addr.i.i42 = alloca ptr, align 8
  %this.addr.i43 = alloca ptr, align 8
  %value.addr.i40 = alloca i32, align 4
  %value.addr.i38 = alloca i64, align 8
  %this.addr.i35 = alloca ptr, align 8
  %this.addr.i.i27 = alloca ptr, align 8
  %handle.i = alloca %"class.v8::Local.279", align 8
  %this.addr.i28 = alloca ptr, align 8
  %value.addr.i26 = alloca i32, align 4
  %value.addr.i = alloca i64, align 8
  %this.addr.i22 = alloca ptr, align 8
  %slot.addr.i23 = alloca ptr, align 8
  %this.addr.i.i.i = alloca ptr, align 8
  %location.addr.i.i.i = alloca ptr, align 8
  %this.addr.i.i18 = alloca ptr, align 8
  %location.addr.i.i = alloca ptr, align 8
  %retval.i19 = alloca %"class.v8::LocalBase", align 8
  %slot.addr.i20 = alloca ptr, align 8
  %this.addr.i.i = alloca ptr, align 8
  %other.addr.i.i = alloca ptr, align 8
  %retval.i16 = alloca %"class.v8::Local", align 8
  %slot.addr.i = alloca ptr, align 8
  %ref.tmp.i = alloca %"class.v8::LocalBase", align 8
  %retval.i12 = alloca %"class.v8::Local", align 8
  %this.addr.i13 = alloca ptr, align 8
  %this.addr.i10 = alloca ptr, align 8
  %i.addr.i = alloca i32, align 4
  %agg.tmp.i = alloca %"class.v8::Local.279", align 8
  %retval.i = alloca %"class.v8::ReturnValue", align 8
  %this.addr.i = alloca ptr, align 8
  %args.addr = alloca ptr, align 8
  %wrap = alloca ptr, align 8
  %agg.tmp = alloca %"class.v8::Local", align 8
  %ref.tmp = alloca %"class.v8::ReturnValue", align 8
  store ptr %args, ptr %args.addr, align 8
  %0 = load ptr, ptr %args.addr, align 8
  store ptr %0, ptr %this.addr.i13, align 8
  %this1.i14 = load ptr, ptr %this.addr.i13, align 8
  %1 = load ptr, ptr %this1.i14, align 8
  store ptr %1, ptr %slot.addr.i, align 8
  %2 = load ptr, ptr %slot.addr.i, align 8
  store ptr %2, ptr %slot.addr.i20, align 8
  %3 = load ptr, ptr %slot.addr.i20, align 8
  store ptr %retval.i19, ptr %this.addr.i.i18, align 8
  store ptr %3, ptr %location.addr.i.i, align 8
  %this1.i.i21 = load ptr, ptr %this.addr.i.i18, align 8
  %4 = load ptr, ptr %location.addr.i.i, align 8
  store ptr %this1.i.i21, ptr %this.addr.i.i.i, align 8
  store ptr %4, ptr %location.addr.i.i.i, align 8
  %this1.i.i.i = load ptr, ptr %this.addr.i.i.i, align 8
  %5 = load ptr, ptr %location.addr.i.i.i, align 8
  store ptr %5, ptr %this1.i.i.i, align 8
  %6 = load ptr, ptr %retval.i19, align 8
  store ptr %6, ptr %ref.tmp.i, align 8
  store ptr %retval.i16, ptr %this.addr.i.i, align 8
  store ptr %ref.tmp.i, ptr %other.addr.i.i, align 8
  %this1.i.i = load ptr, ptr %this.addr.i.i, align 8
  %7 = load ptr, ptr %other.addr.i.i, align 8
  call void @llvm.memcpy.p0.p0.i64(ptr align 8 %this1.i.i, ptr align 8 %7, i64 8, i1 false)
  %8 = load ptr, ptr %retval.i16, align 8
  store ptr %8, ptr %retval.i12, align 8
  %9 = load ptr, ptr %retval.i12, align 8
  %coerce.dive = getelementptr inbounds %"class.v8::Local", ptr %agg.tmp, i32 0, i32 0
  %coerce.dive1 = getelementptr inbounds %"class.v8::LocalBase", ptr %coerce.dive, i32 0, i32 0
  %coerce.dive2 = getelementptr inbounds %"class.v8::IndirectHandleBase", ptr %coerce.dive1, i32 0, i32 0
  store ptr %9, ptr %coerce.dive2, align 8
  %coerce.dive3 = getelementptr inbounds %"class.v8::Local", ptr %agg.tmp, i32 0, i32 0
  %coerce.dive4 = getelementptr inbounds %"class.v8::LocalBase", ptr %coerce.dive3, i32 0, i32 0
  %coerce.dive5 = getelementptr inbounds %"class.v8::IndirectHandleBase", ptr %coerce.dive4, i32 0, i32 0
  %10 = load ptr, ptr %coerce.dive5, align 8
  %call6 = call noundef ptr @_ZN4node11UDPWrapBase10FromObjectEN2v85LocalINS1_6ObjectEEE(ptr %10)
  store ptr %call6, ptr %wrap, align 8
  %11 = load ptr, ptr %args.addr, align 8
  store ptr %11, ptr %this.addr.i, align 8
  %this1.i = load ptr, ptr %this.addr.i, align 8
  %12 = load ptr, ptr %this1.i, align 8
  %arrayidx.i = getelementptr inbounds i64, ptr %12, i64 3
  store ptr %retval.i, ptr %this.addr.i22, align 8
  store ptr %arrayidx.i, ptr %slot.addr.i23, align 8
  %this1.i24 = load ptr, ptr %this.addr.i22, align 8
  %13 = load ptr, ptr %slot.addr.i23, align 8
  store ptr %13, ptr %this1.i24, align 8
  %14 = load ptr, ptr %retval.i, align 8
  %coerce.dive8 = getelementptr inbounds %"class.v8::ReturnValue", ptr %ref.tmp, i32 0, i32 0
  store ptr %14, ptr %coerce.dive8, align 8
  %15 = load ptr, ptr %wrap, align 8
  %cmp = icmp eq ptr %15, null
  br i1 %cmp, label %cond.true, label %cond.false

cond.true:                                        ; preds = %entry
  br label %cond.end

cond.false:                                       ; preds = %entry
  %16 = load ptr, ptr %wrap, align 8
  %vtable = load ptr, ptr %16, align 8
  %vfn = getelementptr inbounds ptr, ptr %vtable, i64 3
  %17 = load ptr, ptr %vfn, align 8
  %call9 = call noundef i32 %17(ptr noundef nonnull align 8 dereferenceable(16) %16)
  br label %cond.end

cond.end:                                         ; preds = %cond.false, %cond.true
  %cond = phi i32 [ -9, %cond.true ], [ %call9, %cond.false ]
  store ptr %ref.tmp, ptr %this.addr.i10, align 8
  store i32 %cond, ptr %i.addr.i, align 4
  %this1.i11 = load ptr, ptr %this.addr.i10, align 8
  %18 = load i32, ptr %i.addr.i, align 4
  %conv.i = sext i32 %18 to i64
  store i64 %conv.i, ptr %value.addr.i, align 8
  %19 = load i64, ptr %value.addr.i, align 8
  store i64 %19, ptr %value.addr.i38, align 8
  %20 = load i64, ptr %value.addr.i38, align 8
  %21 = load i64, ptr %value.addr.i38, align 8
  %conv.i39 = trunc i64 %21 to i32
  %conv1.i = sext i32 %conv.i39 to i64
  %cmp.i = icmp eq i64 %20, %conv1.i
  br i1 %cmp.i, label %if.then.i, label %if.end.i

if.then.i:                                        ; preds = %cond.end
  %22 = load i32, ptr %i.addr.i, align 4
  store i32 %22, ptr %value.addr.i26, align 4
  %23 = load i32, ptr %value.addr.i26, align 4
  store i32 %23, ptr %value.addr.i40, align 4
  %24 = load i32, ptr %value.addr.i40, align 4
  %conv.i41 = sext i32 %24 to i64
  %shl.i = shl i64 %conv.i41, 32
  %25 = load ptr, ptr %this1.i11, align 8
  store i64 %shl.i, ptr %25, align 8
  br label %_ZN2v811ReturnValueINS_5ValueEE3SetEi.exit

if.end.i:                                         ; preds = %cond.end
  store ptr %this1.i11, ptr %this.addr.i35, align 8
  %this1.i36 = load ptr, ptr %this.addr.i35, align 8
  %26 = load ptr, ptr %this1.i36, align 8
  %arrayidx.i37 = getelementptr inbounds i64, ptr %26, i64 -2
  %27 = load ptr, ptr %arrayidx.i37, align 8
  %28 = load i32, ptr %i.addr.i, align 4
  %call6.i = call ptr @_ZN2v87Integer3NewEPNS_7IsolateEi(ptr noundef %27, i32 noundef %28) #3
  store ptr %call6.i, ptr %agg.tmp.i, align 8
  %29 = load ptr, ptr %agg.tmp.i, align 8
  store ptr %29, ptr %handle.i, align 8
  store ptr %this1.i11, ptr %this.addr.i28, align 8
  %this3.i = load ptr, ptr %this.addr.i28, align 8
  store ptr %handle.i, ptr %this.addr.i.i27, align 8
  %this1.i.i29 = load ptr, ptr %this.addr.i.i27, align 8
  %30 = load ptr, ptr %this1.i.i29, align 8
  %cmp.i.i = icmp eq ptr %30, null
  br i1 %cmp.i.i, label %if.then.i33, label %if.else.i

if.then.i33:                                      ; preds = %if.end.i
  store ptr %this3.i, ptr %this.addr.i43, align 8
  %this1.i44 = load ptr, ptr %this.addr.i43, align 8
  store ptr %this1.i44, ptr %this.addr.i.i42, align 8
  %this1.i.i45 = load ptr, ptr %this.addr.i.i42, align 8
  %31 = load ptr, ptr %this1.i.i45, align 8
  %arrayidx.i.i = getelementptr inbounds i64, ptr %31, i64 -2
  %32 = load ptr, ptr %arrayidx.i.i, align 8
  store ptr %32, ptr %isolate.addr.i, align 8
  store i32 5, ptr %index.addr.i, align 4
  %33 = load ptr, ptr %isolate.addr.i, align 8
  %34 = load i32, ptr %index.addr.i, align 4
  store ptr %33, ptr %isolate.addr.i.i, align 8
  store i32 %34, ptr %index.addr.i.i, align 4
  %35 = load ptr, ptr %isolate.addr.i.i, align 8
  %36 = ptrtoint ptr %35 to i64
  %add.i.i = add i64 %36, 576
  %37 = load i32, ptr %index.addr.i.i, align 4
  %mul.i.i = mul nsw i32 %37, 8
  %conv.i.i = sext i32 %mul.i.i to i64
  %add1.i.i = add i64 %add.i.i, %conv.i.i
  store i64 %add1.i.i, ptr %addr.i.i, align 8
  %38 = load i64, ptr %addr.i.i, align 8
  %39 = inttoptr i64 %38 to ptr
  %40 = load i64, ptr %39, align 8
  %41 = load ptr, ptr %this3.i, align 8
  store i64 %40, ptr %41, align 8
  br label %_ZN2v811ReturnValueINS_5ValueEE3SetINS_7IntegerEEEvNS_5LocalIT_EE.exit

if.else.i:                                        ; preds = %if.end.i
  store ptr %handle.i, ptr %this.addr.i46, align 8
  %this1.i47 = load ptr, ptr %this.addr.i46, align 8
  %42 = load ptr, ptr %this1.i47, align 8
  %43 = load i64, ptr %42, align 8
  %44 = load ptr, ptr %this3.i, align 8
  store i64 %43, ptr %44, align 8
  br label %_ZN2v811ReturnValueINS_5ValueEE3SetINS_7IntegerEEEvNS_5LocalIT_EE.exit

_ZN2v811ReturnValueINS_5ValueEE3SetINS_7IntegerEEEvNS_5LocalIT_EE.exit: ; preds = %if.else.i, %if.then.i33
  br label %_ZN2v811ReturnValueINS_5ValueEE3SetEi.exit

_ZN2v811ReturnValueINS_5ValueEE3SetEi.exit:       ; preds = %_ZN2v811ReturnValueINS_5ValueEE3SetINS_7IntegerEEEvNS_5LocalIT_EE.exit, %if.then.i
  ret void
}